target datalayout = "e-m:e-p270:32:32-p271:32:32-p272:64:64-i64:64-i128:128-f80:128-n8:16:32:64-S128"
target triple = "x86_64-pc-linux-gnu"

%struct._xmpp_element_t = type { ptr, ptr, ptr, ptr, ptr, ptr, i32, i32, i8 }
%struct._xmpp_data_t = type { ptr, i32, i32 }

@hf_xmpp_cdata = external global i32, align 4
@.str.16 = private unnamed_addr constant [1 x i8] zeroinitializer, align 1
@.str.17 = private unnamed_addr constant [8 x i8] c"(empty)\00", align 1

; Function Attrs: null_pointer_is_valid sspstrong uwtable
define hidden void @xmpp_cdata(ptr noundef %0, ptr noundef %1, ptr noundef %2, i32 noundef %3) #0 {
  %5 = alloca ptr, align 8
  %6 = alloca ptr, align 8
  %7 = alloca ptr, align 8
  %8 = alloca i32, align 4
  store ptr %0, ptr %5, align 8
  store ptr %1, ptr %6, align 8
  store ptr %2, ptr %7, align 8
  store i32 %3, ptr %8, align 4
  %9 = load ptr, ptr %7, align 8
  %10 = getelementptr inbounds nuw %struct._xmpp_element_t, ptr %9, i32 0, i32 5
  %11 = load ptr, ptr %10, align 8
  %12 = icmp ne ptr %11, null
  br i1 %12, label %13, label %57

13:                                               ; preds = %4
  %14 = load i32, ptr %8, align 4
  %15 = icmp eq i32 %14, -1
  br i1 %15, label %16, label %36

16:                                               ; preds = %13
  %17 = load ptr, ptr %5, align 8
  %18 = load i32, ptr @hf_xmpp_cdata, align 4
  %19 = load ptr, ptr %6, align 8
  %20 = load ptr, ptr %7, align 8
  %21 = getelementptr inbounds nuw %struct._xmpp_element_t, ptr %20, i32 0, i32 5
  %22 = load ptr, ptr %21, align 8
  %23 = getelementptr inbounds nuw %struct._xmpp_data_t, ptr %22, i32 0, i32 1
  %24 = load i32, ptr %23, align 8
  %25 = load ptr, ptr %7, align 8
  %26 = getelementptr inbounds nuw %struct._xmpp_element_t, ptr %25, i32 0, i32 5
  %27 = load ptr, ptr %26, align 8
  %28 = getelementptr inbounds nuw %struct._xmpp_data_t, ptr %27, i32 0, i32 2
  %29 = load i32, ptr %28, align 4
  %30 = load ptr, ptr %7, align 8
  %31 = getelementptr inbounds nuw %struct._xmpp_element_t, ptr %30, i32 0, i32 5
  %32 = load ptr, ptr %31, align 8
  %33 = getelementptr inbounds nuw %struct._xmpp_data_t, ptr %32, i32 0, i32 0
  %34 = load ptr, ptr %33, align 8
  %35 = call ptr @proto_tree_add_string(ptr noundef %17, i32 noundef %18, ptr noundef %19, i32 noundef %24, i32 noundef %29, ptr noundef %34)
  br label %56

36:                                               ; preds = %13
  %37 = load ptr, ptr %5, align 8
  %38 = load i32, ptr %8, align 4
  %39 = load ptr, ptr %6, align 8
  %40 = load ptr, ptr %7, align 8
  %41 = getelementptr inbounds nuw %struct._xmpp_element_t, ptr %40, i32 0, i32 5
  %42 = load ptr, ptr %41, align 8
  %43 = getelementptr inbounds nuw %struct._xmpp_data_t, ptr %42, i32 0, i32 1
  %44 = load i32, ptr %43, align 8
  %45 = load ptr, ptr %7, align 8
  %46 = getelementptr inbounds nuw %struct._xmpp_element_t, ptr %45, i32 0, i32 5
  %47 = load ptr, ptr %46, align 8
  %48 = getelementptr inbounds nuw %struct._xmpp_data_t, ptr %47, i32 0, i32 2
  %49 = load i32, ptr %48, align 4
  %50 = load ptr, ptr %7, align 8
  %51 = getelementptr inbounds nuw %struct._xmpp_element_t, ptr %50, i32 0, i32 5
  %52 = load ptr, ptr %51, align 8
  %53 = getelementptr inbounds nuw %struct._xmpp_data_t, ptr %52, i32 0, i32 0
  %54 = load ptr, ptr %53, align 8
  %55 = call ptr @proto_tree_add_string(ptr noundef %37, i32 noundef %38, ptr noundef %39, i32 noundef %44, i32 noundef %49, ptr noundef %54)
  br label %56

56:                                               ; preds = %36, %16
  br label %71

57:                                               ; preds = %4
  %58 = load i32, ptr %8, align 4
  %59 = icmp eq i32 %58, -1
  br i1 %59, label %60, label %65

60:                                               ; preds = %57
  %61 = load ptr, ptr %5, align 8
  %62 = load i32, ptr @hf_xmpp_cdata, align 4
  %63 = load ptr, ptr %6, align 8
  %64 = call ptr (ptr, i32, ptr, i32, i32, ptr, ptr, ...) @proto_tree_add_string_format_value(ptr noundef %61, i32 noundef %62, ptr noundef %63, i32 noundef 0, i32 noundef 0, ptr noundef @.str.16, ptr noundef @.str.17)
  br label %70

65:                                               ; preds = %57
  %66 = load ptr, ptr %5, align 8
  %67 = load i32, ptr %8, align 4
  %68 = load ptr, ptr %6, align 8
  %69 = call ptr @proto_tree_add_string(ptr noundef %66, i32 noundef %67, ptr noundef %68, i32 noundef 0, i32 noundef 0, ptr noundef @.str.16)
  br label %70

70:                                               ; preds = %65, %60
  br label %71

71:                                               ; preds = %70, %56
  ret void
}