; Function Attrs: null_pointer_is_valid sspstrong uwtable
define hidden void @xmpp_cdata(ptr noundef %0, ptr noundef %1, ptr noundef readonly captures(none) %2, i32 noundef %3) local_unnamed_addr #0 {
  %5 = getelementptr inbounds nuw i8, ptr %2, i64 40
  %6 = load ptr, ptr %5, align 8
  %.not = icmp eq ptr %6, null
  %7 = icmp eq i32 %3, -1
  br i1 %.not, label %24, label %8

8:                                                ; preds = %4
  br i1 %7, label %9, label %17

9:                                                ; preds = %8
  %10 = load i32, ptr @hf_xmpp_cdata, align 4
  %11 = getelementptr inbounds nuw i8, ptr %6, i64 8
  %12 = load i32, ptr %11, align 8
  %13 = getelementptr inbounds nuw i8, ptr %6, i64 12
  %14 = load i32, ptr %13, align 4
  %15 = load ptr, ptr %6, align 8
  %16 = tail call ptr @proto_tree_add_string(ptr noundef %0, i32 noundef %10, ptr noundef %1, i32 noundef %12, i32 noundef %14, ptr noundef %15)
  br label %30

17:                                               ; preds = %8
  %18 = getelementptr inbounds nuw i8, ptr %6, i64 8
  %19 = load i32, ptr %18, align 8
  %20 = getelementptr inbounds nuw i8, ptr %6, i64 12
  %21 = load i32, ptr %20, align 4
  %22 = load ptr, ptr %6, align 8
  %23 = tail call ptr @proto_tree_add_string(ptr noundef %0, i32 noundef %3, ptr noundef %1, i32 noundef %19, i32 noundef %21, ptr noundef %22)
  br label %30

24:                                               ; preds = %4
  br i1 %7, label %25, label %28

25:                                               ; preds = %24
  %26 = load i32, ptr @hf_xmpp_cdata, align 4
  %27 = tail call ptr (ptr, i32, ptr, i32, i32, ptr, ptr, ...) @proto_tree_add_string_format_value(ptr noundef %0, i32 noundef %26, ptr noundef %1, i32 noundef 0, i32 noundef 0, ptr noundef nonnull @.str.16, ptr noundef nonnull @.str.17)
  br label %30

28:                                               ; preds = %24
  %29 = tail call ptr @proto_tree_add_string(ptr noundef %0, i32 noundef %3, ptr noundef %1, i32 noundef 0, i32 noundef 0, ptr noundef nonnull @.str.16)
  br label %30

30:                                               ; preds = %25, %28, %9, %17
  ret void
}